target datalayout = "e-m:e-p270:32:32-p271:32:32-p272:64:64-i64:64-i128:128-f80:128-n8:16:32:64-S128"
target triple = "x86_64-pc-linux-gnu"

%struct.client = type { i64, i64, ptr, i8, i8, i8, i8, i32, ptr, ptr, ptr, ptr, ptr, i64, i64, i32, ptr, i32, i32, ptr, i64, ptr, ptr, ptr, ptr, ptr, i32, i32, i64, ptr, i64, ptr, i64, i64, i64, i32, ptr, i64, i64, i32, i32, i32, i32, i64, i64, ptr, i64, i64, i64, i64, i64, i64, i64, i64, [41 x i8], i32, ptr, i32, i32, i64, %struct.multiState, %struct.blockingState, i64, ptr, ptr, ptr, ptr, ptr, ptr, ptr, ptr, ptr, ptr, ptr, ptr, ptr, ptr, i64, ptr, i64, i32, ptr, ptr, ptr, i64, %struct.listNode, i64, i64, i32, i64, ptr }
%struct.multiState = type { ptr, i32, i32, i32, i64, i32 }
%struct.blockingState = type { i32, i64, i32, ptr, i32, i32, i64, ptr, ptr, i64 }
%struct.listNode = type { ptr, ptr, ptr }
%struct.multiCmd = type { ptr, i32, i32, ptr }

; Function Attrs: nounwind uwtable
define dso_local void @initClientMultiState(ptr noundef %0) #0 {
  %2 = alloca ptr, align 8
  store ptr %0, ptr %2, align 8, !tbaa !5
  %3 = load ptr, ptr %2, align 8, !tbaa !5
  %4 = getelementptr inbounds nuw %struct.client, ptr %3, i32 0, i32 60
  %5 = getelementptr inbounds nuw %struct.multiState, ptr %4, i32 0, i32 0
  store ptr null, ptr %5, align 8, !tbaa !10
  %6 = load ptr, ptr %2, align 8, !tbaa !5
  %7 = getelementptr inbounds nuw %struct.client, ptr %6, i32 0, i32 60
  %8 = getelementptr inbounds nuw %struct.multiState, ptr %7, i32 0, i32 1
  store i32 0, ptr %8, align 8, !tbaa !30
  %9 = load ptr, ptr %2, align 8, !tbaa !5
  %10 = getelementptr inbounds nuw %struct.client, ptr %9, i32 0, i32 60
  %11 = getelementptr inbounds nuw %struct.multiState, ptr %10, i32 0, i32 2
  store i32 0, ptr %11, align 4, !tbaa !31
  %12 = load ptr, ptr %2, align 8, !tbaa !5
  %13 = getelementptr inbounds nuw %struct.client, ptr %12, i32 0, i32 60
  %14 = getelementptr inbounds nuw %struct.multiState, ptr %13, i32 0, i32 3
  store i32 0, ptr %14, align 8, !tbaa !32
  %15 = load ptr, ptr %2, align 8, !tbaa !5
  %16 = getelementptr inbounds nuw %struct.client, ptr %15, i32 0, i32 60
  %17 = getelementptr inbounds nuw %struct.multiState, ptr %16, i32 0, i32 4
  store i64 0, ptr %17, align 8, !tbaa !33
  %18 = load ptr, ptr %2, align 8, !tbaa !5
  %19 = getelementptr inbounds nuw %struct.client, ptr %18, i32 0, i32 60
  %20 = getelementptr inbounds nuw %struct.multiState, ptr %19, i32 0, i32 5
  store i32 0, ptr %20, align 8, !tbaa !34
  ret void
}

; Function Attrs: nounwind uwtable
define dso_local void @freeClientMultiState(ptr noundef %0) #0 {
  %2 = alloca ptr, align 8
  %3 = alloca i32, align 4
  %4 = alloca i32, align 4
  %5 = alloca ptr, align 8
  store ptr %0, ptr %2, align 8, !tbaa !5
  call void @llvm.lifetime.start.p0(i64 4, ptr %3) #8
  store i32 0, ptr %3, align 4, !tbaa !35
  br label %6

6:                                                ; preds = %42, %1
  %7 = load i32, ptr %3, align 4, !tbaa !35
  %8 = load ptr, ptr %2, align 8, !tbaa !5
  %9 = getelementptr inbounds nuw %struct.client, ptr %8, i32 0, i32 60
  %10 = getelementptr inbounds nuw %struct.multiState, ptr %9, i32 0, i32 1
  %11 = load i32, ptr %10, align 8, !tbaa !30
  %12 = icmp slt i32 %7, %11
  br i1 %12, label %13, label %45

13:                                               ; preds = %6
  call void @llvm.lifetime.start.p0(i64 4, ptr %4) #8
  call void @llvm.lifetime.start.p0(i64 8, ptr %5) #8
  %14 = load ptr, ptr %2, align 8, !tbaa !5
  %15 = getelementptr inbounds nuw %struct.client, ptr %14, i32 0, i32 60
  %16 = getelementptr inbounds nuw %struct.multiState, ptr %15, i32 0, i32 0
  %17 = load ptr, ptr %16, align 8, !tbaa !10
  %18 = load i32, ptr %3, align 4, !tbaa !35
  %19 = sext i32 %18 to i64
  %20 = getelementptr inbounds %struct.multiCmd, ptr %17, i64 %19
  store ptr %20, ptr %5, align 8, !tbaa !36
  store i32 0, ptr %4, align 4, !tbaa !35
  br label %21

21:                                               ; preds = %35, %13
  %22 = load i32, ptr %4, align 4, !tbaa !35
  %23 = load ptr, ptr %5, align 8, !tbaa !36
  %24 = getelementptr inbounds nuw %struct.multiCmd, ptr %23, i32 0, i32 2
  %25 = load i32, ptr %24, align 4, !tbaa !37
  %26 = icmp slt i32 %22, %25
  br i1 %26, label %27, label %38

27:                                               ; preds = %21
  %28 = load ptr, ptr %5, align 8, !tbaa !36
  %29 = getelementptr inbounds nuw %struct.multiCmd, ptr %28, i32 0, i32 0
  %30 = load ptr, ptr %29, align 8, !tbaa !39
  %31 = load i32, ptr %4, align 4, !tbaa !35
  %32 = sext i32 %31 to i64
  %33 = getelementptr inbounds ptr, ptr %30, i64 %32
  %34 = load ptr, ptr %33, align 8, !tbaa !40
  call void @decrRefCount(ptr noundef %34)
  br label %35

35:                                               ; preds = %27
  %36 = load i32, ptr %4, align 4, !tbaa !35
  %37 = add nsw i32 %36, 1
  store i32 %37, ptr %4, align 4, !tbaa !35
  br label %21, !llvm.loop !41

38:                                               ; preds = %21
  %39 = load ptr, ptr %5, align 8, !tbaa !36
  %40 = getelementptr inbounds nuw %struct.multiCmd, ptr %39, i32 0, i32 0
  %41 = load ptr, ptr %40, align 8, !tbaa !39
  call void @zfree(ptr noundef %41)
  call void @llvm.lifetime.end.p0(i64 8, ptr %5) #8
  call void @llvm.lifetime.end.p0(i64 4, ptr %4) #8
  br label %42

42:                                               ; preds = %38
  %43 = load i32, ptr %3, align 4, !tbaa !35
  %44 = add nsw i32 %43, 1
  store i32 %44, ptr %3, align 4, !tbaa !35
  br label %6, !llvm.loop !43

45:                                               ; preds = %6
  %46 = load ptr, ptr %2, align 8, !tbaa !5
  %47 = getelementptr inbounds nuw %struct.client, ptr %46, i32 0, i32 60
  %48 = getelementptr inbounds nuw %struct.multiState, ptr %47, i32 0, i32 0
  %49 = load ptr, ptr %48, align 8, !tbaa !10
  call void @zfree(ptr noundef %49)
  call void @llvm.lifetime.end.p0(i64 4, ptr %3) #8
  ret void
}

; Function Attrs: nounwind uwtable
define dso_local void @discardTransaction(ptr noundef %0) #0 {
  %2 = alloca ptr, align 8
  store ptr %0, ptr %2, align 8, !tbaa !5
  %3 = load ptr, ptr %2, align 8, !tbaa !5
  call void @freeClientMultiState(ptr noundef %3)
  %4 = load ptr, ptr %2, align 8, !tbaa !5
  call void @initClientMultiState(ptr noundef %4)
  %5 = load ptr, ptr %2, align 8, !tbaa !5
  %6 = getelementptr inbounds nuw %struct.client, ptr %5, i32 0, i32 1
  %7 = load i64, ptr %6, align 8, !tbaa !45
  %8 = and i64 %7, -4137
  store i64 %8, ptr %6, align 8, !tbaa !45
  %9 = load ptr, ptr %2, align 8, !tbaa !5
  call void @unwatchAllKeys(ptr noundef %9)
  ret void
}