; Function Attrs: nounwind uwtable
define dso_local void @discardTransaction(ptr noundef %0) local_unnamed_addr #1 {
  %2 = getelementptr inbounds nuw i8, ptr %0, i64 440
  %3 = getelementptr inbounds nuw i8, ptr %0, i64 448
  %4 = load i32, ptr %3, align 8, !tbaa !29
  %5 = icmp sgt i32 %4, 0
  br i1 %5, label %.lr.ph15.i, label %freeClientMultiState.exit

.lr.ph15.i:                                       ; preds = %1, %._crit_edge.i
  %indvars.iv18.i = phi i64 [ %indvars.iv.next19.i, %._crit_edge.i ], [ 0, %1 ]
  %6 = load ptr, ptr %2, align 8, !tbaa !30
  %7 = getelementptr inbounds nuw %struct.multiCmd, ptr %6, i64 %indvars.iv18.i
  %8 = getelementptr inbounds nuw i8, ptr %7, i64 12
  %9 = load i32, ptr %8, align 4, !tbaa !31
  %10 = icmp sgt i32 %9, 0
  br i1 %10, label %.lr.ph.i, label %._crit_edge.i

.lr.ph.i:                                         ; preds = %.lr.ph15.i, %.lr.ph.i
  %indvars.iv.i = phi i64 [ %indvars.iv.next.i, %.lr.ph.i ], [ 0, %.lr.ph15.i ]
  %11 = load ptr, ptr %7, align 8, !tbaa !33
  %12 = getelementptr inbounds nuw ptr, ptr %11, i64 %indvars.iv.i
  %13 = load ptr, ptr %12, align 8, !tbaa !34
  tail call void @decrRefCount(ptr noundef %13) #10
  %indvars.iv.next.i = add nuw nsw i64 %indvars.iv.i, 1
  %14 = load i32, ptr %8, align 4, !tbaa !31
  %15 = sext i32 %14 to i64
  %16 = icmp slt i64 %indvars.iv.next.i, %15
  br i1 %16, label %.lr.ph.i, label %._crit_edge.i, !llvm.loop !35

._crit_edge.i:                                    ; preds = %.lr.ph.i, %.lr.ph15.i
  %17 = load ptr, ptr %7, align 8, !tbaa !33
  tail call void @zfree(ptr noundef %17) #10
  %indvars.iv.next19.i = add nuw nsw i64 %indvars.iv18.i, 1
  %18 = load i32, ptr %3, align 8, !tbaa !29
  %19 = sext i32 %18 to i64
  %20 = icmp slt i64 %indvars.iv.next19.i, %19
  br i1 %20, label %.lr.ph15.i, label %freeClientMultiState.exit, !llvm.loop !37

freeClientMultiState.exit:                        ; preds = %._crit_edge.i, %1
  %21 = load ptr, ptr %2, align 8, !tbaa !30
  tail call void @zfree(ptr noundef %21) #10
  %22 = getelementptr inbounds nuw i8, ptr %0, i64 464
  store i64 0, ptr %22, align 8, !tbaa !5
  %23 = getelementptr inbounds nuw i8, ptr %0, i64 472
  store i32 0, ptr %23, align 8, !tbaa !28
  tail call void @llvm.memset.p0.i64(ptr noundef nonnull align 8 dereferenceable(20) %2, i8 0, i64 20, i1 false)
  %24 = getelementptr inbounds nuw i8, ptr %0, i64 8
  %25 = load i64, ptr %24, align 8, !tbaa !38
  %26 = and i64 %25, -4137
  store i64 %26, ptr %24, align 8, !tbaa !38
  tail call void @unwatchAllKeys(ptr noundef nonnull %0)
  ret void
}